; Function Attrs: mustprogress uwtable
define void @izrule_getName_77(ptr noundef nonnull %0, ptr noundef nonnull writeonly align 8 captures(none) dereferenceable(8) %1, ptr noundef nonnull align 4 captures(none) dereferenceable(4) %2) local_unnamed_addr #1 personality ptr @__gxx_personality_v0 {
  %4 = alloca %"class.icu_77::UnicodeString", align 8
  call void @llvm.lifetime.start.p0(i64 64, ptr nonnull %4) #7
  store ptr getelementptr inbounds nuw inrange(-16, 88) (i8, ptr @_ZTVN6icu_7713UnicodeStringE, i64 16), ptr %4, align 8, !tbaa !3
  %5 = getelementptr inbounds nuw i8, ptr %4, i64 8
  store i16 2, ptr %5, align 8, !tbaa !12
  %6 = invoke noundef nonnull align 8 dereferenceable(64) ptr @_ZNK6icu_7712TimeZoneRule7getNameERNS_13UnicodeStringE(ptr noundef nonnull align 8 dereferenceable(80) %0, ptr noundef nonnull align 8 dereferenceable(64) %4)
          to label %7 unwind label %29

7:                                                ; preds = %3
  %8 = load i16, ptr %5, align 8, !tbaa !12
  %9 = icmp slt i16 %8, 0
  %10 = ashr i16 %8, 5
  %11 = sext i16 %10 to i32
  %12 = getelementptr inbounds nuw i8, ptr %4, i64 12
  %13 = load i32, ptr %12, align 4
  %14 = select i1 %9, i32 %13, i32 %11
  store i32 %14, ptr %2, align 4, !tbaa !13
  %15 = sext i32 %14 to i64
  %16 = invoke noalias ptr @uprv_malloc_77(i64 noundef %15) #8
          to label %17 unwind label %29

17:                                               ; preds = %7
  store ptr %16, ptr %1, align 8, !tbaa !15
  %18 = load i16, ptr %5, align 8, !tbaa !12
  %19 = and i16 %18, 17
  %.not.i = icmp eq i16 %19, 0
  br i1 %.not.i, label %20, label %_ZNK6icu_7713UnicodeString9getBufferEv.exit

20:                                               ; preds = %17
  %21 = and i16 %18, 2
  %.not2.i = icmp eq i16 %21, 0
  br i1 %.not2.i, label %24, label %22

22:                                               ; preds = %20
  %23 = getelementptr inbounds nuw i8, ptr %4, i64 10
  br label %_ZNK6icu_7713UnicodeString9getBufferEv.exit

24:                                               ; preds = %20
  %25 = getelementptr inbounds nuw i8, ptr %4, i64 24
  %26 = load ptr, ptr %25, align 8, !tbaa !12
  br label %_ZNK6icu_7713UnicodeString9getBufferEv.exit

_ZNK6icu_7713UnicodeString9getBufferEv.exit:      ; preds = %17, %22, %24
  %.0.i = phi ptr [ %23, %22 ], [ %26, %24 ], [ null, %17 ]
  %27 = load i32, ptr %2, align 4, !tbaa !13
  %28 = sext i32 %27 to i64
  call void @llvm.memcpy.p0.p0.i64(ptr align 2 %16, ptr align 2 %.0.i, i64 %28, i1 false)
  call void @_ZN6icu_7713UnicodeStringD1Ev(ptr noundef nonnull align 8 dereferenceable(64) %4) #7
  call void @llvm.lifetime.end.p0(i64 64, ptr nonnull %4) #7
  ret void

29:                                               ; preds = %7, %3
  %30 = landingpad { ptr, i32 }
          cleanup
  call void @_ZN6icu_7713UnicodeStringD1Ev(ptr noundef nonnull align 8 dereferenceable(64) %4) #7
  call void @llvm.lifetime.end.p0(i64 64, ptr nonnull %4) #7
  resume { ptr, i32 } %30
}